; ModuleID = '60/1621.c'
source_filename = "60/1621.c"
target datalayout = "e-m:e-p270:32:32-p271:32:32-p272:64:64-i64:64-f80:128-n8:16:32:64-S128"
target triple = "x86_64-pc-linux-gnu"

@.str = private unnamed_addr constant [3 x i8] c"%d\00", align 1
@.str.1 = private unnamed_addr constant [7 x i8] c"%d %d\0A\00", align 1
@.str.2 = private unnamed_addr constant [6 x i8] c"empty\00", align 1

; Function Attrs: noinline nounwind uwtable
define dso_local i32 @main() #0 {
  %1 = alloca i32, align 4
  %2 = alloca i32, align 4
  %3 = alloca i32, align 4
  %4 = alloca i32, align 4
  %5 = alloca i32, align 4
  %6 = alloca i32, align 4
  %7 = alloca i32, align 4
  %8 = alloca [10000 x i32], align 16
  store i32 0, i32* %1, align 4
  %9 = call i32 (i8*, ...) @__isoc99_scanf(i8* getelementptr inbounds ([3 x i8], [3 x i8]* @.str, i64 0, i64 0), i32* %2)
  %10 = load i32, i32* %2, align 4
  %11 = icmp sge i32 %10, 5
  br i1 %11, label %12, label %100

12:                                               ; preds = %0
  store i32 1, i32* %3, align 4
  br label %13

13:                                               ; preds = %22, %12
  %14 = load i32, i32* %3, align 4
  %15 = load i32, i32* %2, align 4
  %16 = icmp sle i32 %14, %15
  br i1 %16, label %17, label %25

17:                                               ; preds = %13
  %18 = load i32, i32* %3, align 4
  %19 = load i32, i32* %3, align 4
  %20 = sext i32 %19 to i64
  %21 = getelementptr inbounds [10000 x i32], [10000 x i32]* %8, i64 0, i64 %20
  store i32 %18, i32* %21, align 4
  br label %22

22:                                               ; preds = %17
  %23 = load i32, i32* %3, align 4
  %24 = add nsw i32 %23, 1
  store i32 %24, i32* %3, align 4
  br label %13

25:                                               ; preds = %13
  store i32 5, i32* %3, align 4
  br label %26

26:                                               ; preds = %96, %25
  %27 = load i32, i32* %3, align 4
  %28 = load i32, i32* %2, align 4
  %29 = icmp sle i32 %27, %28
  br i1 %29, label %30, label %99

30:                                               ; preds = %26
  store i32 1, i32* %6, align 4
  store i32 2, i32* %4, align 4
  br label %31

31:                                               ; preds = %50, %30
  %32 = load i32, i32* %4, align 4
  %33 = load i32, i32* %3, align 4
  %34 = sub nsw i32 %33, 1
  %35 = icmp sle i32 %32, %34
  br i1 %35, label %36, label %53

36:                                               ; preds = %31
  %37 = load i32, i32* %3, align 4
  %38 = sext i32 %37 to i64
  %39 = getelementptr inbounds [10000 x i32], [10000 x i32]* %8, i64 0, i64 %38
  %40 = load i32, i32* %39, align 4
  %41 = load i32, i32* %4, align 4
  %42 = srem i32 %40, %41
  %43 = icmp eq i32 %42, 0
  br i1 %43, label %44, label %45

44:                                               ; preds = %36
  store i32 0, i32* %5, align 4
  br label %46

45:                                               ; preds = %36
  store i32 1, i32* %5, align 4
  br label %46

46:                                               ; preds = %45, %44
  %47 = load i32, i32* %6, align 4
  %48 = load i32, i32* %5, align 4
  %49 = mul nsw i32 %47, %48
  store i32 %49, i32* %6, align 4
  br label %50

50:                                               ; preds = %46
  %51 = load i32, i32* %4, align 4
  %52 = add nsw i32 %51, 1
  store i32 %52, i32* %4, align 4
  br label %31

53:                                               ; preds = %31
  %54 = load i32, i32* %6, align 4
  %55 = icmp ne i32 %54, 0
  br i1 %55, label %56, label %95

56:                                               ; preds = %53
  store i32 1, i32* %7, align 4
  store i32 2, i32* %4, align 4
  br label %57

57:                                               ; preds = %77, %56
  %58 = load i32, i32* %4, align 4
  %59 = load i32, i32* %3, align 4
  %60 = sub nsw i32 %59, 3
  %61 = icmp sle i32 %58, %60
  br i1 %61, label %62, label %80

62:                                               ; preds = %57
  %63 = load i32, i32* %3, align 4
  %64 = sub nsw i32 %63, 2
  %65 = sext i32 %64 to i64
  %66 = getelementptr inbounds [10000 x i32], [10000 x i32]* %8, i64 0, i64 %65
  %67 = load i32, i32* %66, align 4
  %68 = load i32, i32* %4, align 4
  %69 = srem i32 %67, %68
  %70 = icmp eq i32 %69, 0
  br i1 %70, label %71, label %72

71:                                               ; preds = %62
  store i32 0, i32* %5, align 4
  br label %73

72:                                               ; preds = %62
  store i32 1, i32* %5, align 4
  br label %73

73:                                               ; preds = %72, %71
  %74 = load i32, i32* %7, align 4
  %75 = load i32, i32* %5, align 4
  %76 = mul nsw i32 %74, %75
  store i32 %76, i32* %7, align 4
  br label %77

77:                                               ; preds = %73
  %78 = load i32, i32* %4, align 4
  %79 = add nsw i32 %78, 1
  store i32 %79, i32* %4, align 4
  br label %57

80:                                               ; preds = %57
  %81 = load i32, i32* %7, align 4
  %82 = icmp ne i32 %81, 0
  br i1 %82, label %83, label %94

83:                                               ; preds = %80
  %84 = load i32, i32* %3, align 4
  %85 = sub nsw i32 %84, 2
  %86 = sext i32 %85 to i64
  %87 = getelementptr inbounds [10000 x i32], [10000 x i32]* %8, i64 0, i64 %86
  %88 = load i32, i32* %87, align 4
  %89 = load i32, i32* %3, align 4
  %90 = sext i32 %89 to i64
  %91 = getelementptr inbounds [10000 x i32], [10000 x i32]* %8, i64 0, i64 %90
  %92 = load i32, i32* %91, align 4
  %93 = call i32 (i8*, ...) @printf(i8* getelementptr inbounds ([7 x i8], [7 x i8]* @.str.1, i64 0, i64 0), i32 %88, i32 %92)
  br label %94

94:                                               ; preds = %83, %80
  br label %95

95:                                               ; preds = %94, %53
  br label %96

96:                                               ; preds = %95
  %97 = load i32, i32* %3, align 4
  %98 = add nsw i32 %97, 1
  store i32 %98, i32* %3, align 4
  br label %26

99:                                               ; preds = %26
  br label %102

100:                                              ; preds = %0
  %101 = call i32 (i8*, ...) @printf(i8* getelementptr inbounds ([6 x i8], [6 x i8]* @.str.2, i64 0, i64 0))
  br label %102

102:                                              ; preds = %100, %99
  ret i32 0
}

declare dso_local i32 @__isoc99_scanf(i8*, ...) #1

declare dso_local i32 @printf(i8*, ...) #1


!llvm.module.flags = !{!0}
!llvm.ident = !{!1}

!0 = !{i32 1, !"wchar_size", i32 4}
!1 = !{!"clang version 10.0.0-4ubuntu1 "}
